target datalayout = "e-m:e-p270:32:32-p271:32:32-p272:64:64-i64:64-i128:128-f80:128-n8:16:32:64-S128"
target triple = "x86_64-pc-linux-gnu"

@__clewGetContextInfo = external global ptr, align 8

; Function Attrs: mustprogress uwtable
define dso_local ptr @b3OpenCLUtils_getDevice(ptr noundef %0, i32 noundef %1) #0 {
  %3 = alloca ptr, align 8
  %4 = alloca ptr, align 8
  %5 = alloca i32, align 4
  %6 = alloca i64, align 8
  %7 = alloca ptr, align 8
  %8 = alloca ptr, align 8
  %9 = alloca i32, align 4
  store ptr %0, ptr %4, align 8, !tbaa !23
  store i32 %1, ptr %5, align 4, !tbaa !12
  call void @llvm.lifetime.start.p0(i64 8, ptr %6) #9
  call void @llvm.lifetime.start.p0(i64 8, ptr %7) #9
  call void @llvm.lifetime.start.p0(i64 8, ptr %8) #9
  %10 = load ptr, ptr @__clewGetContextInfo, align 8, !tbaa !9
  %11 = load ptr, ptr %4, align 8, !tbaa !23
  %12 = call i32 %10(ptr noundef %11, i32 noundef 4225, i64 noundef 0, ptr noundef null, ptr noundef %6)
  %13 = load i64, ptr %6, align 8, !tbaa !10
  %14 = udiv i64 %13, 8
  %15 = load i32, ptr %5, align 4, !tbaa !12
  %16 = zext i32 %15 to i64
  %17 = icmp ult i64 %14, %16
  br i1 %17, label %18, label %19

18:                                               ; preds = %2
  store ptr inttoptr (i64 -1 to ptr), ptr %3, align 8
  store i32 1, ptr %9, align 4
  br label %34

19:                                               ; preds = %2
  %20 = load i64, ptr %6, align 8, !tbaa !10
  %21 = call noalias ptr @malloc(i64 noundef %20) #11
  store ptr %21, ptr %7, align 8, !tbaa !31
  %22 = load ptr, ptr @__clewGetContextInfo, align 8, !tbaa !9
  %23 = load ptr, ptr %4, align 8, !tbaa !23
  %24 = load i64, ptr %6, align 8, !tbaa !10
  %25 = load ptr, ptr %7, align 8, !tbaa !31
  %26 = call i32 %22(ptr noundef %23, i32 noundef 4225, i64 noundef %24, ptr noundef %25, ptr noundef null)
  %27 = load ptr, ptr %7, align 8, !tbaa !31
  %28 = load i32, ptr %5, align 4, !tbaa !12
  %29 = sext i32 %28 to i64
  %30 = getelementptr inbounds ptr, ptr %27, i64 %29
  %31 = load ptr, ptr %30, align 8, !tbaa !33
  store ptr %31, ptr %8, align 8, !tbaa !33
  %32 = load ptr, ptr %7, align 8, !tbaa !31
  call void @free(ptr noundef %32) #9
  %33 = load ptr, ptr %8, align 8, !tbaa !33
  store ptr %33, ptr %3, align 8
  store i32 1, ptr %9, align 4
  br label %34

34:                                               ; preds = %19, %18
  call void @llvm.lifetime.end.p0(i64 8, ptr %8) #9
  call void @llvm.lifetime.end.p0(i64 8, ptr %7) #9
  call void @llvm.lifetime.end.p0(i64 8, ptr %6) #9
  %35 = load ptr, ptr %3, align 8
  ret ptr %35
}