; Function Attrs: mustprogress uwtable
define dso_local ptr @b3OpenCLUtils_getDevice(ptr noundef %0, i32 noundef %1) local_unnamed_addr #0 {
  %3 = alloca i64, align 8
  call void @llvm.lifetime.start.p0(i64 8, ptr nonnull %3) #12
  %4 = load ptr, ptr @__clewGetContextInfo, align 8, !tbaa !8
  %5 = call i32 %4(ptr noundef %0, i32 noundef 4225, i64 noundef 0, ptr noundef null, ptr noundef nonnull %3)
  %6 = load i64, ptr %3, align 8, !tbaa !15
  %7 = lshr i64 %6, 3
  %8 = zext i32 %1 to i64
  %9 = icmp samesign ult i64 %7, %8
  br i1 %9, label %17, label %10

10:                                               ; preds = %2
  %11 = call noalias ptr @malloc(i64 noundef %6) #13
  %12 = load ptr, ptr @__clewGetContextInfo, align 8, !tbaa !8
  %13 = call i32 %12(ptr noundef %0, i32 noundef 4225, i64 noundef %6, ptr noundef %11, ptr noundef null)
  %14 = sext i32 %1 to i64
  %15 = getelementptr inbounds ptr, ptr %11, i64 %14
  %16 = load ptr, ptr %15, align 8, !tbaa !21
  call void @free(ptr noundef %11) #12
  br label %17

17:                                               ; preds = %2, %10
  %.0 = phi ptr [ %16, %10 ], [ inttoptr (i64 -1 to ptr), %2 ]
  call void @llvm.lifetime.end.p0(i64 8, ptr nonnull %3) #12
  ret ptr %.0
}